; ModuleID = 'source-C-CXX/27/1932.c'
source_filename = "source-C-CXX/27/1932.c"
target datalayout = "e-m:e-p270:32:32-p271:32:32-p272:64:64-i64:64-f80:128-n8:16:32:64-S128"
target triple = "x86_64-pc-linux-gnu"

@.str = private unnamed_addr constant [3 x i8] c"%d\00", align 1
@.str.1 = private unnamed_addr constant [4 x i8] c",%d\00", align 1

; Function Attrs: nounwind sspstrong uwtable
define dso_local i32 @main() local_unnamed_addr #0 {
  %1 = alloca [100000 x i8], align 16
  %2 = alloca [1000 x i32], align 16
  %3 = getelementptr inbounds [100000 x i8], [100000 x i8]* %1, i64 0, i64 0
  call void @llvm.lifetime.start.p0i8(i64 100000, i8* nonnull %3) #5
  %4 = bitcast [1000 x i32]* %2 to i8*
  call void @llvm.lifetime.start.p0i8(i64 4000, i8* nonnull %4) #5
  %5 = call i32 (i8*, ...) bitcast (i32 (...)* @gets to i32 (i8*, ...)*)(i8* nonnull %3) #5
  %6 = call i64 @strlen(i8* noundef nonnull %3) #6
  %7 = trunc i64 %6 to i32
  %8 = icmp sgt i32 %7, 0
  br i1 %8, label %11, label %9

9:                                                ; preds = %0
  %10 = call i32 (i8*, ...) @printf(i8* nonnull dereferenceable(1) getelementptr inbounds ([3 x i8], [3 x i8]* @.str, i64 0, i64 0), i32 undef)
  br label %58

11:                                               ; preds = %0
  %12 = shl i64 %6, 32
  %13 = ashr exact i64 %12, 32
  br label %14

14:                                               ; preds = %11, %33
  %15 = phi i64 [ 0, %11 ], [ %37, %33 ]
  %16 = phi i32 [ 0, %11 ], [ %38, %33 ]
  %17 = icmp slt i32 %16, %7
  br i1 %17, label %18, label %33

18:                                               ; preds = %14
  %19 = sext i32 %16 to i64
  %20 = sub i32 %7, %16
  br label %21

21:                                               ; preds = %18, %27
  %22 = phi i64 [ %19, %18 ], [ %29, %27 ]
  %23 = phi i32 [ 0, %18 ], [ %28, %27 ]
  %24 = getelementptr inbounds [100000 x i8], [100000 x i8]* %1, i64 0, i64 %22
  %25 = load i8, i8* %24, align 1, !tbaa !5
  %26 = icmp eq i8 %25, 32
  br i1 %26, label %31, label %27

27:                                               ; preds = %21
  %28 = add nuw nsw i32 %23, 1
  %29 = add nsw i64 %22, 1
  %30 = icmp eq i64 %29, %13
  br i1 %30, label %33, label %21, !llvm.loop !8

31:                                               ; preds = %21
  %32 = trunc i64 %22 to i32
  br label %33

33:                                               ; preds = %27, %31, %14
  %34 = phi i32 [ %16, %14 ], [ %32, %31 ], [ %7, %27 ]
  %35 = phi i32 [ 0, %14 ], [ %23, %31 ], [ %20, %27 ]
  %36 = getelementptr inbounds [1000 x i32], [1000 x i32]* %2, i64 0, i64 %15
  store i32 %35, i32* %36, align 4, !tbaa !10
  %37 = add nuw i64 %15, 1
  %38 = add nsw i32 %34, 1
  %39 = icmp slt i32 %38, %7
  br i1 %39, label %14, label %40, !llvm.loop !12

40:                                               ; preds = %33
  %41 = trunc i64 %37 to i32
  %42 = getelementptr inbounds [1000 x i32], [1000 x i32]* %2, i64 0, i64 0
  %43 = load i32, i32* %42, align 16, !tbaa !10
  %44 = call i32 (i8*, ...) @printf(i8* nonnull dereferenceable(1) getelementptr inbounds ([3 x i8], [3 x i8]* @.str, i64 0, i64 0), i32 %43)
  %45 = icmp ugt i32 %41, 1
  br i1 %45, label %46, label %58

46:                                               ; preds = %40
  %47 = and i64 %37, 4294967295
  br label %48

48:                                               ; preds = %46, %55
  %49 = phi i64 [ 1, %46 ], [ %56, %55 ]
  %50 = getelementptr inbounds [1000 x i32], [1000 x i32]* %2, i64 0, i64 %49
  %51 = load i32, i32* %50, align 4, !tbaa !10
  %52 = icmp eq i32 %51, 0
  br i1 %52, label %55, label %53

53:                                               ; preds = %48
  %54 = call i32 (i8*, ...) @printf(i8* nonnull dereferenceable(1) getelementptr inbounds ([4 x i8], [4 x i8]* @.str.1, i64 0, i64 0), i32 %51)
  br label %55

55:                                               ; preds = %48, %53
  %56 = add nuw nsw i64 %49, 1
  %57 = icmp eq i64 %56, %47
  br i1 %57, label %58, label %48, !llvm.loop !13

58:                                               ; preds = %55, %9, %40
  call void @llvm.lifetime.end.p0i8(i64 4000, i8* nonnull %4) #5
  call void @llvm.lifetime.end.p0i8(i64 100000, i8* nonnull %3) #5
  ret i32 0
}

; Function Attrs: argmemonly mustprogress nofree nosync nounwind willreturn
declare void @llvm.lifetime.start.p0i8(i64 immarg, i8* nocapture) #1

declare i32 @gets(...) local_unnamed_addr #2

; Function Attrs: argmemonly mustprogress nofree nounwind readonly willreturn
declare i64 @strlen(i8* nocapture) local_unnamed_addr #3

; Function Attrs: nofree nounwind
declare noundef i32 @printf(i8* nocapture noundef readonly, ...) local_unnamed_addr #4

; Function Attrs: argmemonly mustprogress nofree nosync nounwind willreturn
declare void @llvm.lifetime.end.p0i8(i64 immarg, i8* nocapture) #1


!llvm.module.flags = !{!0, !1, !2, !3}
!llvm.ident = !{!4}

!0 = !{i32 1, !"wchar_size", i32 4}
!1 = !{i32 7, !"PIC Level", i32 2}
!2 = !{i32 7, !"PIE Level", i32 2}
!3 = !{i32 7, !"uwtable", i32 1}
!4 = !{!"clang version 13.0.0"}
!5 = !{!6, !6, i64 0}
!6 = !{!"omnipotent char", !7, i64 0}
!7 = !{!"Simple C/C++ TBAA"}
!8 = distinct !{!8, !9}
!9 = !{!"llvm.loop.mustprogress"}
!10 = !{!11, !11, i64 0}
!11 = !{!"int", !6, i64 0}
!12 = distinct !{!12, !9}
!13 = distinct !{!13, !9}
